target datalayout = "e-m:e-p270:32:32-p271:32:32-p272:64:64-i64:64-i128:128-f80:128-n8:16:32:64-S128"
target triple = "x86_64-pc-linux-gnu"

%struct.AVRational = type { i32, i32 }
%struct.AVFormatContext = type { ptr, ptr, ptr, ptr, ptr, i32, i32, ptr, i32, ptr, i32, ptr, ptr, i64, i64, i64, i32, i32, i32, i64, i64, ptr, i32, i32, ptr, i32, i32, i32, i32, ptr, i64, i32, i32, %struct.AVIOInterruptCB, i32, i32, i32, i32, i64, i32, i32, i32, i32, i32, i32, i32, i32, i32, i32, i32, i32, i64, i32, i32, i32, i32, i32, ptr, ptr, ptr, ptr, i32, ptr, ptr, ptr, ptr, i32, ptr, ptr, i64, ptr, ptr, ptr, i64 }
%struct.AVIOInterruptCB = type { ptr, ptr }
%struct.AVPacket = type { ptr, i64, i64, ptr, i32, i32, i32, ptr, i32, i64, i64, ptr, ptr, %struct.AVRational }

; Function Attrs: nounwind uwtable
define internal i32 @rawvideo_read_packet(ptr noundef %0, ptr noundef %1) #0 {
  %3 = alloca i32, align 4
  %4 = alloca ptr, align 8
  %5 = alloca ptr, align 8
  %6 = alloca i32, align 4
  %7 = alloca i32, align 4
  store ptr %0, ptr %4, align 8, !tbaa !4
  store ptr %1, ptr %5, align 8, !tbaa !64
  call void @llvm.lifetime.start.p0(i64 4, ptr %6) #5
  %8 = load ptr, ptr %4, align 8, !tbaa !4
  %9 = getelementptr inbounds nuw %struct.AVFormatContext, ptr %8, i32 0, i32 4
  %10 = load ptr, ptr %9, align 8, !tbaa !66
  %11 = load ptr, ptr %5, align 8, !tbaa !64
  %12 = load ptr, ptr %4, align 8, !tbaa !4
  %13 = getelementptr inbounds nuw %struct.AVFormatContext, ptr %12, i32 0, i32 16
  %14 = load i32, ptr %13, align 8, !tbaa !60
  %15 = call i32 @av_get_packet(ptr noundef %10, ptr noundef %11, i32 noundef %14)
  store i32 %15, ptr %6, align 4, !tbaa !48
  %16 = load ptr, ptr %5, align 8, !tbaa !64
  %17 = getelementptr inbounds nuw %struct.AVPacket, ptr %16, i32 0, i32 10
  %18 = load i64, ptr %17, align 8, !tbaa !67
  %19 = load ptr, ptr %4, align 8, !tbaa !4
  %20 = getelementptr inbounds nuw %struct.AVFormatContext, ptr %19, i32 0, i32 16
  %21 = load i32, ptr %20, align 8, !tbaa !60
  %22 = zext i32 %21 to i64
  %23 = sdiv i64 %18, %22
  %24 = load ptr, ptr %5, align 8, !tbaa !64
  %25 = getelementptr inbounds nuw %struct.AVPacket, ptr %24, i32 0, i32 2
  store i64 %23, ptr %25, align 8, !tbaa !68
  %26 = load ptr, ptr %5, align 8, !tbaa !64
  %27 = getelementptr inbounds nuw %struct.AVPacket, ptr %26, i32 0, i32 1
  store i64 %23, ptr %27, align 8, !tbaa !69
  %28 = load ptr, ptr %5, align 8, !tbaa !64
  %29 = getelementptr inbounds nuw %struct.AVPacket, ptr %28, i32 0, i32 5
  store i32 0, ptr %29, align 4, !tbaa !70
  %30 = load i32, ptr %6, align 4, !tbaa !48
  %31 = icmp slt i32 %30, 0
  br i1 %31, label %32, label %34

32:                                               ; preds = %2
  %33 = load i32, ptr %6, align 4, !tbaa !48
  store i32 %33, ptr %3, align 4
  store i32 1, ptr %7, align 4
  br label %35

34:                                               ; preds = %2
  store i32 0, ptr %3, align 4
  store i32 1, ptr %7, align 4
  br label %35

35:                                               ; preds = %34, %32
  call void @llvm.lifetime.end.p0(i64 4, ptr %6) #5
  %36 = load i32, ptr %3, align 4
  ret i32 %36
}