; Function Attrs: nounwind uwtable
define internal range(i32 -2147483648, 1) i32 @rawvideo_read_packet(ptr noundef readonly captures(none) %0, ptr noundef %1) #0 {
  %3 = getelementptr inbounds nuw i8, ptr %0, i64 32
  %4 = load ptr, ptr %3, align 8, !tbaa !53
  %5 = getelementptr inbounds nuw i8, ptr %0, i64 120
  %6 = load i32, ptr %5, align 8, !tbaa !51
  %7 = tail call i32 @av_get_packet(ptr noundef %4, ptr noundef %1, i32 noundef %6) #4
  %8 = getelementptr inbounds nuw i8, ptr %1, i64 72
  %9 = load i64, ptr %8, align 8, !tbaa !54
  %10 = load i32, ptr %5, align 8, !tbaa !51
  %11 = zext i32 %10 to i64
  %12 = sdiv i64 %9, %11
  %13 = getelementptr inbounds nuw i8, ptr %1, i64 16
  store i64 %12, ptr %13, align 8, !tbaa !55
  %14 = getelementptr inbounds nuw i8, ptr %1, i64 8
  store i64 %12, ptr %14, align 8, !tbaa !56
  %15 = getelementptr inbounds nuw i8, ptr %1, i64 36
  store i32 0, ptr %15, align 4, !tbaa !57
  %. = tail call i32 @llvm.smin.i32(i32 %7, i32 0)
  ret i32 %.
}